(dp1
S'sg_version_data'
p2
(dp3
S'code'
p4
S'v1.4.1'
p5
sS'description'
p6
S'[No wiki release notes found]'
p7
sS'tags'
p8
(lp9
sS'sg_payload'
p10
(dp11
S'name'
p12
S'tk-config-default2_v1.4.1.zip'
p13
sS'url'
p14
S'https://s3-proxy.shotgunstudio.com/d18c13bf0e59a9a82f18be518a1b6b508bcbd774/00afba47f94ef29d8a3fc6705eaf8254dcd7b01b/tk-config-default2_v1.4.1.zip?response-content-disposition=filename%3D%22tk-config-default2_v1.4.1.zip%22&x-amz-meta-user-id=4183&x-amz-meta-user-type=ApiUser&X-Amz-Algorithm=AWS4-HMAC-SHA256&X-Amz-Credential=ASIAYJG6Z4JISYTR2OHC%2F20210927%2Fus-west-2%2Fs3%2Faws4_request&X-Amz-Date=20210927T153217Z&X-Amz-Expires=900&X-Amz-SignedHeaders=host&X-Amz-Security-Token=FwoGZXIvYXdzEDkaDDWIOLr9fIi1gORyqiKvAeVxsIfhxAPDwpxhogv7FxqgYVgl5KCLiDzSkN5nrTXmSrKL6G%2Bt8AN6gbNDVBpRZ%2FSwvVenEEe5xCHNtebKUNgZ9oCL6DFJo9MG%2BcCccafkPXTLW%2Fs3YBDOFCgt7Ia48DA2OLXngx6mBm2NGK%2FIbUGE2Vmr2%2F2yEa%2BV7MyfmIOv2PCe2JaqdXasCBQ1O%2F8t1opdGWXMPTC3PfSP%2BWrEo%2BP1l%2F81X5i%2BDekcf%2F1lNAwo677HigYyLT0FVOQS7KqgtFBDgx0yqHaHCR4OzoCD7%2FC0lXSH%2BSFV2n148XeFOhGNY772GQ%3D%3D&X-Amz-Signature=59071c8e4b69a900a74496a4629f03d5d7a64561b445abb9322bcf74646d3337'
p15
sS'content_type'
p16
S'application/zip'
p17
sS'type'
p18
S'Attachment'
p19
sS'id'
p20
I26011
sS'link_type'
p21
S'upload'
p22
ssS'sg_status_list'
p23
S'prod'
p24
sS'sg_detailed_release_notes'
p25
(dp26
S'name'
p27
S'v1.4.1'
p28
sS'url'
p29
S'https://community.shotgridsoftware.com/t/shotgun-integration-1-4-release-notes/12589/2'
p30
sS'content_type'
p31
NsS'type'
p32
S'Attachment'
p33
sS'id'
p34
I26015
sS'link_type'
p35
S'web'
p36
ssS'sg_documentation'
p37
NsS'type'
p38
S'CustomNonProjectEntity08'
p39
sS'id'
p40
I2095
ssS'sg_bundle_data'
p41
(dp42
S'sg_status_list'
p43
S'hidden'
p44
sS'type'
p45
S'CustomNonProjectEntity07'
p46
sS'id'
p47
I81
sS'sg_system_name'
p48
S'tk-config-default2'
p49
sS'sg_deprecation_message'
p50
Nss.